ccopy_reg
_reconstructor
p1
(chmmlearn.hmm
GaussianHMM
p2
c__builtin__
object
p3
NtRp4
(dp5
S'min_covar'
p6
F0.001
sS'verbose'
p7
I00
sS'means_weight'
p8
I0
sS'startprob_prior'
p9
F1
sS'transmat_prior'
p10
F1
sS'means_prior'
p11
I0
sS'covars_weight'
p12
I1
sS'startprob_'
p13
cnumpy.core.multiarray
_reconstruct
p14
(cnumpy
ndarray
p15
(I0
tS'b'
tRp16
(I1
(I2
tcnumpy
dtype
p17
(S'f8'
I0
I1
tRp18
(I3
S'<'
NNNI-1
I-1
I0
tbI00
S'\xef\xa7%\x89\x7f\xa0g9\x00\x00\x00\x00\x00\x00\xf0?'
tbsS'transmat_'
p19
g14
(g15
(I0
tS'b'
tRp20
(I1
(I2
I2
tg18
I00
S'\xa1\xd5\x88I4\xf3\xef?S\xbeT\xeel\x97Y?\t"6\x94r\x01j?\xde\xc9k\x8d\xfe\xe5\xef?'
tbsS'means_'
p21
g14
(g15
(I0
tS'b'
tRp22
(I1
(I2
I1
tg18
I00
S'{N\xbb\xd02{\r@"Ap\x12b\xbf#@'
tbsS'n_iter'
p23
I1000
sS'_covars_'
p24
g14
(g15
(I0
tS'b'
tRp25
(I1
(I2
I1
tg18
I00
S'&\xa6 \xd0\xd8\x83\x01@\xb1\xb2:\xad\xc3j\x10@'
tbsS'algorithm'
p26
S'viterbi'
p27
sS'covariance_type'
p28
S'diag'
p29
sS'monitor_'
p30
g1
(chmmlearn.base
ConvergenceMonitor
p31
g3
NtRp32
(dp33
g23
I1000
sS'iter'
p34
I7
sg7
I00
sS'tol'
p35
F0.01
sS'history'
p36
ccollections
deque
p37
((lp38
cnumpy.core.multiarray
scalar
p39
(g18
S'\xf3\x12\x1db\x8a%\xb1\xc0'
tRp40
ag39
(g18
S'\xcb\x9apa\x8a%\xb1\xc0'
tRp41
aI2
tRp42
sbsS'random_state'
p43
NsS'params'
p44
S'stmc'
p45
sS'n_components'
p46
I2
sg35
F0.01
sS'n_features'
p47
I1
sS'init_params'
p48
g45
sS'covars_prior'
p49
F0.01
sb.